; Function Attrs: mustprogress uwtable
define noundef ptr @_Z19dtAllocNavMeshQueryv() local_unnamed_addr #1 {
  %1 = tail call noundef ptr @_Z7dtAllocm11dtAllocHint(i64 noundef 104, i32 noundef 0)
  %.not = icmp eq ptr %1, null
  br i1 %.not, label %3, label %2

2:                                                ; preds = %0
  tail call void @_ZN14dtNavMeshQueryC1Ev(ptr noundef nonnull align 8 dereferenceable(104) %1)
  br label %3

3:                                                ; preds = %0, %2
  ret ptr %1
}